target datalayout = "e-m:e-p270:32:32-p271:32:32-p272:64:64-i64:64-i128:128-f80:128-n8:16:32:64-S128"
target triple = "x86_64-pc-linux-gnu"

%struct.pointf_s = type { double, double }
%struct.Info_t = type { ptr, %struct.Site, i8, %struct.Poly, ptr, i64 }
%struct.Site = type { %struct.pointf_s, i64, i32 }
%struct.Poly = type { %struct.pointf_s, %struct.pointf_s, i32, ptr, i32 }

@Verbose = external global i8, align 1
@stderr = external global ptr, align 8
@nsites = external global i64, align 8
@nodeInfo = external global ptr, align 8
@.str.52 = private unnamed_addr constant [19 x i8] c"overlap [%u] : %u\0A\00", align 1

; Function Attrs: nounwind uwtable
define internal i32 @countOverlap(i32 noundef %0) #0 {
  %2 = alloca i32, align 4
  %3 = alloca i32, align 4
  %4 = alloca i64, align 8
  %5 = alloca i64, align 8
  %6 = alloca i32, align 4
  %7 = alloca ptr, align 8
  %8 = alloca i64, align 8
  %9 = alloca ptr, align 8
  store i32 %0, ptr %2, align 4, !tbaa !16
  call void @llvm.lifetime.start.p0(i64 4, ptr %3) #13
  store i32 0, ptr %3, align 4, !tbaa !16
  call void @llvm.lifetime.start.p0(i64 8, ptr %4) #13
  store i64 0, ptr %4, align 8, !tbaa !46
  br label %10

10:                                               ; preds = %20, %1
  %11 = load i64, ptr %4, align 8, !tbaa !46
  %12 = load i64, ptr @nsites, align 8, !tbaa !46
  %13 = icmp ult i64 %11, %12
  br i1 %13, label %15, label %14

14:                                               ; preds = %10
  call void @llvm.lifetime.end.p0(i64 8, ptr %4) #13
  br label %23

15:                                               ; preds = %10
  %16 = load ptr, ptr @nodeInfo, align 8, !tbaa !49
  %17 = load i64, ptr %4, align 8, !tbaa !46
  %18 = getelementptr inbounds nuw %struct.Info_t, ptr %16, i64 %17
  %19 = getelementptr inbounds nuw %struct.Info_t, ptr %18, i32 0, i32 2
  store i8 0, ptr %19, align 8, !tbaa !152
  br label %20

20:                                               ; preds = %15
  %21 = load i64, ptr %4, align 8, !tbaa !46
  %22 = add i64 %21, 1
  store i64 %22, ptr %4, align 8, !tbaa !46
  br label %10, !llvm.loop !153

23:                                               ; preds = %14
  call void @llvm.lifetime.start.p0(i64 8, ptr %5) #13
  store i64 0, ptr %5, align 8, !tbaa !46
  br label %24

24:                                               ; preds = %77, %23
  %25 = load i64, ptr %5, align 8, !tbaa !46
  %26 = load i64, ptr @nsites, align 8, !tbaa !46
  %27 = sub i64 %26, 1
  %28 = icmp ult i64 %25, %27
  br i1 %28, label %30, label %29

29:                                               ; preds = %24
  store i32 5, ptr %6, align 4
  call void @llvm.lifetime.end.p0(i64 8, ptr %5) #13
  br label %80

30:                                               ; preds = %24
  call void @llvm.lifetime.start.p0(i64 8, ptr %7) #13
  %31 = load ptr, ptr @nodeInfo, align 8, !tbaa !49
  %32 = load i64, ptr %5, align 8, !tbaa !46
  %33 = getelementptr inbounds nuw %struct.Info_t, ptr %31, i64 %32
  store ptr %33, ptr %7, align 8, !tbaa !49
  call void @llvm.lifetime.start.p0(i64 8, ptr %8) #13
  %34 = load i64, ptr %5, align 8, !tbaa !46
  %35 = add i64 %34, 1
  store i64 %35, ptr %8, align 8, !tbaa !46
  br label %36

36:                                               ; preds = %73, %30
  %37 = load i64, ptr %8, align 8, !tbaa !46
  %38 = load i64, ptr @nsites, align 8, !tbaa !46
  %39 = icmp ult i64 %37, %38
  br i1 %39, label %41, label %40

40:                                               ; preds = %36
  store i32 8, ptr %6, align 4
  call void @llvm.lifetime.end.p0(i64 8, ptr %8) #13
  br label %76

41:                                               ; preds = %36
  call void @llvm.lifetime.start.p0(i64 8, ptr %9) #13
  %42 = load ptr, ptr @nodeInfo, align 8, !tbaa !49
  %43 = load i64, ptr %8, align 8, !tbaa !46
  %44 = getelementptr inbounds nuw %struct.Info_t, ptr %42, i64 %43
  store ptr %44, ptr %9, align 8, !tbaa !49
  %45 = load ptr, ptr %7, align 8, !tbaa !49
  %46 = getelementptr inbounds nuw %struct.Info_t, ptr %45, i32 0, i32 1
  %47 = getelementptr inbounds nuw %struct.Site, ptr %46, i32 0, i32 0
  %48 = load ptr, ptr %7, align 8, !tbaa !49
  %49 = getelementptr inbounds nuw %struct.Info_t, ptr %48, i32 0, i32 3
  %50 = load ptr, ptr %9, align 8, !tbaa !49
  %51 = getelementptr inbounds nuw %struct.Info_t, ptr %50, i32 0, i32 1
  %52 = getelementptr inbounds nuw %struct.Site, ptr %51, i32 0, i32 0
  %53 = load ptr, ptr %9, align 8, !tbaa !49
  %54 = getelementptr inbounds nuw %struct.Info_t, ptr %53, i32 0, i32 3
  %55 = getelementptr inbounds nuw { double, double }, ptr %47, i32 0, i32 0
  %56 = load double, ptr %55, align 8
  %57 = getelementptr inbounds nuw { double, double }, ptr %47, i32 0, i32 1
  %58 = load double, ptr %57, align 8
  %59 = getelementptr inbounds nuw { double, double }, ptr %52, i32 0, i32 0
  %60 = load double, ptr %59, align 8
  %61 = getelementptr inbounds nuw { double, double }, ptr %52, i32 0, i32 1
  %62 = load double, ptr %61, align 8
  %63 = call i32 @polyOverlap(double %56, double %58, ptr noundef %49, double %60, double %62, ptr noundef %54)
  %64 = icmp ne i32 %63, 0
  br i1 %64, label %65, label %72

65:                                               ; preds = %41
  %66 = load i32, ptr %3, align 4, !tbaa !16
  %67 = add i32 %66, 1
  store i32 %67, ptr %3, align 4, !tbaa !16
  %68 = load ptr, ptr %7, align 8, !tbaa !49
  %69 = getelementptr inbounds nuw %struct.Info_t, ptr %68, i32 0, i32 2
  store i8 1, ptr %69, align 8, !tbaa !152
  %70 = load ptr, ptr %9, align 8, !tbaa !49
  %71 = getelementptr inbounds nuw %struct.Info_t, ptr %70, i32 0, i32 2
  store i8 1, ptr %71, align 8, !tbaa !152
  br label %72

72:                                               ; preds = %65, %41
  call void @llvm.lifetime.end.p0(i64 8, ptr %9) #13
  br label %73

73:                                               ; preds = %72
  %74 = load i64, ptr %8, align 8, !tbaa !46
  %75 = add i64 %74, 1
  store i64 %75, ptr %8, align 8, !tbaa !46
  br label %36, !llvm.loop !154

76:                                               ; preds = %40
  call void @llvm.lifetime.end.p0(i64 8, ptr %7) #13
  br label %77

77:                                               ; preds = %76
  %78 = load i64, ptr %5, align 8, !tbaa !46
  %79 = add i64 %78, 1
  store i64 %79, ptr %5, align 8, !tbaa !46
  br label %24, !llvm.loop !155

80:                                               ; preds = %29
  %81 = load i8, ptr @Verbose, align 1, !tbaa !67
  %82 = zext i8 %81 to i32
  %83 = icmp sgt i32 %82, 1
  br i1 %83, label %84, label %89

84:                                               ; preds = %80
  %85 = load ptr, ptr @stderr, align 8, !tbaa !47
  %86 = load i32, ptr %2, align 4, !tbaa !16
  %87 = load i32, ptr %3, align 4, !tbaa !16
  %88 = call i32 (ptr, ptr, ...) @fprintf(ptr noundef %85, ptr noundef @.str.52, i32 noundef %86, i32 noundef %87) #13
  br label %89

89:                                               ; preds = %84, %80
  %90 = load i32, ptr %3, align 4, !tbaa !16
  store i32 1, ptr %6, align 4
  call void @llvm.lifetime.end.p0(i64 4, ptr %3) #13
  ret i32 %90
}