; Function Attrs: nounwind uwtable
define internal fastcc i32 @countOverlap(i32 noundef %0) unnamed_addr #0 {
  %2 = load i64, ptr @nsites, align 8, !tbaa !68
  %.not30 = icmp eq i64 %2, 0
  br i1 %.not30, label %.lr.ph28.preheader, label %.lr.ph

.lr.ph:                                           ; preds = %1
  %3 = load ptr, ptr @nodeInfo, align 8, !tbaa !69
  br label %4

.preheader:                                       ; preds = %4
  %.not31 = icmp eq i64 %2, 1
  br i1 %.not31, label %._crit_edge, label %.lr.ph28.preheader

.lr.ph28.preheader:                               ; preds = %1, %.preheader
  br label %.lr.ph28

4:                                                ; preds = %.lr.ph, %4
  %.02022 = phi i64 [ 0, %.lr.ph ], [ %6, %4 ]
  %5 = getelementptr inbounds nuw %struct.Info_t, ptr %3, i64 %.02022, i32 2
  store i8 0, ptr %5, align 8, !tbaa !115
  %6 = add nuw i64 %.02022, 1
  %exitcond.not = icmp eq i64 %6, %2
  br i1 %exitcond.not, label %.preheader, label %4, !llvm.loop !145

.loopexit:                                        ; preds = %35, %.lr.ph28
  %7 = phi i64 [ %12, %.lr.ph28 ], [ %37, %35 ]
  %.1.lcssa = phi i32 [ %.027, %.lr.ph28 ], [ %.2, %35 ]
  %8 = add i64 %7, -1
  %9 = icmp ult i64 %13, %8
  br i1 %9, label %.lr.ph28, label %._crit_edge, !llvm.loop !146

._crit_edge:                                      ; preds = %.loopexit, %.preheader
  %.0.lcssa = phi i32 [ 0, %.preheader ], [ %.1.lcssa, %.loopexit ]
  %10 = load i8, ptr @Verbose, align 1, !tbaa !48
  %11 = icmp ugt i8 %10, 1
  br i1 %11, label %39, label %42

.lr.ph28:                                         ; preds = %.lr.ph28.preheader, %.loopexit
  %12 = phi i64 [ %7, %.loopexit ], [ %2, %.lr.ph28.preheader ]
  %.027 = phi i32 [ %.1.lcssa, %.loopexit ], [ 0, %.lr.ph28.preheader ]
  %.02126 = phi i64 [ %13, %.loopexit ], [ 0, %.lr.ph28.preheader ]
  %13 = add nuw i64 %.02126, 1
  %14 = icmp ult i64 %13, %12
  br i1 %14, label %.lr.ph25, label %.loopexit

.lr.ph25:                                         ; preds = %.lr.ph28
  %15 = load ptr, ptr @nodeInfo, align 8, !tbaa !69
  %16 = getelementptr inbounds nuw %struct.Info_t, ptr %15, i64 %.02126
  %17 = getelementptr inbounds nuw i8, ptr %16, i64 8
  %18 = getelementptr inbounds nuw i8, ptr %16, i64 48
  %19 = getelementptr inbounds nuw i8, ptr %16, i64 16
  %20 = getelementptr inbounds nuw i8, ptr %16, i64 40
  br label %21

21:                                               ; preds = %.lr.ph25, %35
  %.124 = phi i32 [ %.027, %.lr.ph25 ], [ %.2, %35 ]
  %.01923 = phi i64 [ %13, %.lr.ph25 ], [ %36, %35 ]
  %22 = load ptr, ptr @nodeInfo, align 8, !tbaa !69
  %23 = getelementptr inbounds nuw %struct.Info_t, ptr %22, i64 %.01923
  %24 = getelementptr inbounds nuw i8, ptr %23, i64 8
  %25 = getelementptr inbounds nuw i8, ptr %23, i64 48
  %26 = load double, ptr %17, align 8
  %27 = load double, ptr %19, align 8
  %28 = load double, ptr %24, align 8
  %29 = getelementptr inbounds nuw i8, ptr %23, i64 16
  %30 = load double, ptr %29, align 8
  %31 = tail call i32 @polyOverlap(double %26, double %27, ptr noundef nonnull %18, double %28, double %30, ptr noundef nonnull %25) #20
  %.not = icmp eq i32 %31, 0
  br i1 %.not, label %35, label %32

32:                                               ; preds = %21
  %33 = add i32 %.124, 1
  store i8 1, ptr %20, align 8, !tbaa !115
  %34 = getelementptr inbounds nuw i8, ptr %23, i64 40
  store i8 1, ptr %34, align 8, !tbaa !115
  br label %35

35:                                               ; preds = %32, %21
  %.2 = phi i32 [ %33, %32 ], [ %.124, %21 ]
  %36 = add nuw i64 %.01923, 1
  %37 = load i64, ptr @nsites, align 8, !tbaa !68
  %38 = icmp ult i64 %36, %37
  br i1 %38, label %21, label %.loopexit, !llvm.loop !147

39:                                               ; preds = %._crit_edge
  %40 = load ptr, ptr @stderr, align 8, !tbaa !7
  %41 = tail call i32 (ptr, ptr, ...) @fprintf(ptr noundef %40, ptr noundef nonnull @.str.52, i32 noundef %0, i32 noundef %.0.lcssa) #22
  br label %42

42:                                               ; preds = %39, %._crit_edge
  ret i32 %.0.lcssa
}